; Function Attrs: mustprogress nofree norecurse nosync nounwind willreturn memory(read, inaccessiblemem: none) uwtable
define noundef ptr @_ZNK7rocksdb16ColumnFamilyData10GetDataDirEm(ptr nocapture noundef nonnull readonly align 8 dereferenceable(2656) %this, i64 noundef %path_id) local_unnamed_addr #15 align 2 {
entry:
  %data_dirs_ = getelementptr inbounds i8, ptr %this, i64 2560
  %0 = load ptr, ptr %data_dirs_, align 8
  %_M_finish.i.i = getelementptr inbounds i8, ptr %this, i64 2568
  %1 = load ptr, ptr %_M_finish.i.i, align 8
  %cmp.i.i = icmp eq ptr %0, %1
  br i1 %cmp.i.i, label %return, label %if.end

if.end:                                           ; preds = %entry
  %add.ptr.i = getelementptr inbounds %"class.std::shared_ptr.959", ptr %0, i64 %path_id
  %2 = load ptr, ptr %add.ptr.i, align 8
  br label %return

return:                                           ; preds = %entry, %if.end
  %retval.0 = phi ptr [ %2, %if.end ], [ null, %entry ]
  ret ptr %retval.0
}